target datalayout = "e-m:e-p270:32:32-p271:32:32-p272:64:64-i64:64-i128:128-f80:128-n8:16:32:64-S128"
target triple = "x86_64-pc-linux-gnu"

%struct.t_filenm = type { i32, ptr, ptr, i64, %"class.std::vector" }
%"class.std::vector" = type { %"struct.std::_Vector_base" }
%"struct.std::_Vector_base" = type { %"struct.std::_Vector_base<std::__cxx11::basic_string<char>, std::allocator<std::__cxx11::basic_string<char>>>::_Vector_impl" }
%"struct.std::_Vector_base<std::__cxx11::basic_string<char>, std::allocator<std::__cxx11::basic_string<char>>>::_Vector_impl" = type { %"struct.std::_Vector_base<std::__cxx11::basic_string<char>, std::allocator<std::__cxx11::basic_string<char>>>::_Vector_impl_data" }
%"struct.std::_Vector_base<std::__cxx11::basic_string<char>, std::allocator<std::__cxx11::basic_string<char>>>::_Vector_impl_data" = type { ptr, ptr, ptr }
%class.anon.3 = type { i8 }
%"class.std::__cxx11::basic_string" = type { %"struct.std::__cxx11::basic_string<char>::_Alloc_hider", i64, %union.anon }
%"struct.std::__cxx11::basic_string<char>::_Alloc_hider" = type { ptr }
%union.anon = type { i64, [8 x i8] }
%"class.gmx::ArrayRef" = type { %"struct.gmx::ArrayRefIter", %"struct.gmx::ArrayRefIter" }
%"struct.gmx::ArrayRefIter" = type { ptr }
%class.anon.5 = type { i8 }

@.str = private unnamed_addr constant [18 x i8] c"nfile == 0 || fnm\00", align 1
@.str.1 = private unnamed_addr constant [31 x i8] c"need a valid list of filenames\00", align 1
@"__PRETTY_FUNCTION__._ZZL13getFileOptionPKciPK8t_filenmENK3$_0clEv" = private unnamed_addr constant [95 x i8] c"auto getFileOption(const char *, int, const t_filenm *)::(anonymous class)::operator()() const\00", align 1
@.str.2 = private unnamed_addr constant [128 x i8] c"generated/home/dtcxzyw/WorkSpace/Projects/compilers/llvm-opt-benchmark/bench/gromacs/gromacs/src/gromacs/commandline/filenm.cpp\00", align 1
@.str.3 = private unnamed_addr constant [6 x i8] c"false\00", align 1
@.str.5 = private unnamed_addr constant [45 x i8] c"opt2fns should be called with a valid option\00", align 1
@"__PRETTY_FUNCTION__._ZZ7opt2fnsB5cxx11PKciPK8t_filenmENK3$_0clEv" = private unnamed_addr constant [89 x i8] c"auto opt2fns(const char *, int, const t_filenm *)::(anonymous class)::operator()() const\00", align 1

; Function Attrs: mustprogress nounwind uwtable
define linkonce_odr noundef ptr @_ZNKSt6vectorINSt7__cxx1112basic_stringIcSt11char_traitsIcESaIcEEESaIS5_EE11_M_data_ptrIS5_EEPT_SA_(ptr noundef nonnull align 8 dereferenceable(24) %0, ptr noundef %1) #1 comdat align 2 {
  %3 = alloca ptr, align 8
  %4 = alloca ptr, align 8
  store ptr %0, ptr %3, align 8
  store ptr %1, ptr %4, align 8
  %5 = load ptr, ptr %4, align 8
  ret ptr %5
}

; Function Attrs: mustprogress nounwind uwtable
define linkonce_odr noundef i64 @_ZNKSt6vectorINSt7__cxx1112basic_stringIcSt11char_traitsIcESaIcEEESaIS5_EE4sizeEv(ptr noundef nonnull align 8 dereferenceable(24) %0) #1 comdat align 2 {
  %2 = alloca ptr, align 8
  store ptr %0, ptr %2, align 8
  %3 = load ptr, ptr %2, align 8
  %4 = getelementptr inbounds %"struct.std::_Vector_base", ptr %3, i32 0, i32 0
  %5 = getelementptr inbounds %"struct.std::_Vector_base<std::__cxx11::basic_string<char>, std::allocator<std::__cxx11::basic_string<char>>>::_Vector_impl_data", ptr %4, i32 0, i32 1
  %6 = load ptr, ptr %5, align 8
  %7 = getelementptr inbounds %"struct.std::_Vector_base", ptr %3, i32 0, i32 0
  %8 = getelementptr inbounds %"struct.std::_Vector_base<std::__cxx11::basic_string<char>, std::allocator<std::__cxx11::basic_string<char>>>::_Vector_impl_data", ptr %7, i32 0, i32 0
  %9 = load ptr, ptr %8, align 8
  %10 = ptrtoint ptr %6 to i64
  %11 = ptrtoint ptr %9 to i64
  %12 = sub i64 %10, %11
  %13 = sdiv exact i64 %12, 32
  ret i64 %13
}

; Function Attrs: mustprogress nounwind uwtable
define linkonce_odr void @_ZN3gmx12ArrayRefIterIKNSt7__cxx1112basic_stringIcSt11char_traitsIcESaIcEEEEC2EPS7_(ptr noundef nonnull align 8 dereferenceable(8) %0, ptr noundef %1) unnamed_addr #1 comdat align 2 {
  %3 = alloca ptr, align 8
  %4 = alloca ptr, align 8
  store ptr %0, ptr %3, align 8
  store ptr %1, ptr %4, align 8
  %5 = load ptr, ptr %3, align 8
  %6 = getelementptr inbounds %"struct.gmx::ArrayRefIter", ptr %5, i32 0, i32 0
  %7 = load ptr, ptr %4, align 8
  store ptr %7, ptr %6, align 8
  ret void
}

; Function Attrs: mustprogress nounwind uwtable
define linkonce_odr noundef ptr @_ZNKSt6vectorINSt7__cxx1112basic_stringIcSt11char_traitsIcESaIcEEESaIS5_EE4dataEv(ptr noundef nonnull align 8 dereferenceable(24) %0) #1 comdat align 2 {
  %2 = alloca ptr, align 8
  store ptr %0, ptr %2, align 8
  %3 = load ptr, ptr %2, align 8
  %4 = getelementptr inbounds %"struct.std::_Vector_base", ptr %3, i32 0, i32 0
  %5 = getelementptr inbounds %"struct.std::_Vector_base<std::__cxx11::basic_string<char>, std::allocator<std::__cxx11::basic_string<char>>>::_Vector_impl_data", ptr %4, i32 0, i32 0
  %6 = load ptr, ptr %5, align 8
  %7 = call noundef ptr @_ZNKSt6vectorINSt7__cxx1112basic_stringIcSt11char_traitsIcESaIcEEESaIS5_EE11_M_data_ptrIS5_EEPT_SA_(ptr noundef nonnull align 8 dereferenceable(24) %3, ptr noundef %6) #8
  ret ptr %7
}

; Function Attrs: mustprogress uwtable
define internal void @"_ZZL13getFileOptionPKciPK8t_filenmENK3$_0clEv"(ptr noundef nonnull align 1 dereferenceable(1) %0) #0 align 2 {
  %2 = alloca ptr, align 8
  store ptr %0, ptr %2, align 8
  call void @_ZN3gmx8internal13assertHandlerEPKcS2_S2_S2_i(ptr noundef @.str, ptr noundef @.str.1, ptr noundef @"__PRETTY_FUNCTION__._ZZL13getFileOptionPKciPK8t_filenmENK3$_0clEv", ptr noundef @.str.2, i32 noundef 66) #10
  unreachable
}

; Function Attrs: mustprogress nounwind uwtable
define linkonce_odr void @_ZN3gmx8ArrayRefIKNSt7__cxx1112basic_stringIcSt11char_traitsIcESaIcEEEEC2Ev(ptr noundef nonnull align 8 dereferenceable(16) %0) unnamed_addr #1 comdat align 2 {
  %2 = alloca ptr, align 8
  store ptr %0, ptr %2, align 8
  %3 = load ptr, ptr %2, align 8
  %4 = getelementptr inbounds %"class.gmx::ArrayRef", ptr %3, i32 0, i32 0
  call void @_ZN3gmx12ArrayRefIterIKNSt7__cxx1112basic_stringIcSt11char_traitsIcESaIcEEEEC2EPS7_(ptr noundef nonnull align 8 dereferenceable(8) %4, ptr noundef null) #8
  %5 = getelementptr inbounds %"class.gmx::ArrayRef", ptr %3, i32 0, i32 1
  call void @_ZN3gmx12ArrayRefIterIKNSt7__cxx1112basic_stringIcSt11char_traitsIcESaIcEEEEC2EPS7_(ptr noundef nonnull align 8 dereferenceable(8) %5, ptr noundef null) #8
  ret void
}

; Function Attrs: mustprogress uwtable
define internal void @"_ZZ7opt2fnsB5cxx11PKciPK8t_filenmENK3$_0clEv"(ptr noundef nonnull align 1 dereferenceable(1) %0) #0 align 2 {
  %2 = alloca ptr, align 8
  store ptr %0, ptr %2, align 8
  call void @_ZN3gmx8internal13assertHandlerEPKcS2_S2_S2_i(ptr noundef @.str.3, ptr noundef @.str.5, ptr noundef @"__PRETTY_FUNCTION__._ZZ7opt2fnsB5cxx11PKciPK8t_filenmENK3$_0clEv", ptr noundef @.str.2, i32 noundef 103) #10
  unreachable
}

; Function Attrs: mustprogress nounwind uwtable
define linkonce_odr void @_ZN3gmx8ArrayRefIKNSt7__cxx1112basic_stringIcSt11char_traitsIcESaIcEEEEC2IRKSt6vectorIS6_SaIS6_EEvEEOT_(ptr noundef nonnull align 8 dereferenceable(16) %0, ptr noundef nonnull align 8 dereferenceable(24) %1) unnamed_addr #1 comdat align 2 {
  %3 = alloca ptr, align 8
  %4 = alloca ptr, align 8
  store ptr %0, ptr %3, align 8
  store ptr %1, ptr %4, align 8
  %5 = load ptr, ptr %3, align 8
  %6 = getelementptr inbounds %"class.gmx::ArrayRef", ptr %5, i32 0, i32 0
  %7 = load ptr, ptr %4, align 8
  %8 = call noundef ptr @_ZNKSt6vectorINSt7__cxx1112basic_stringIcSt11char_traitsIcESaIcEEESaIS5_EE4dataEv(ptr noundef nonnull align 8 dereferenceable(24) %7) #8
  call void @_ZN3gmx12ArrayRefIterIKNSt7__cxx1112basic_stringIcSt11char_traitsIcESaIcEEEEC2EPS7_(ptr noundef nonnull align 8 dereferenceable(8) %6, ptr noundef %8) #8
  %9 = getelementptr inbounds %"class.gmx::ArrayRef", ptr %5, i32 0, i32 1
  %10 = load ptr, ptr %4, align 8
  %11 = call noundef ptr @_ZNKSt6vectorINSt7__cxx1112basic_stringIcSt11char_traitsIcESaIcEEESaIS5_EE4dataEv(ptr noundef nonnull align 8 dereferenceable(24) %10) #8
  %12 = load ptr, ptr %4, align 8
  %13 = call noundef i64 @_ZNKSt6vectorINSt7__cxx1112basic_stringIcSt11char_traitsIcESaIcEEESaIS5_EE4sizeEv(ptr noundef nonnull align 8 dereferenceable(24) %12) #8
  %14 = getelementptr inbounds %"class.std::__cxx11::basic_string", ptr %11, i64 %13
  call void @_ZN3gmx12ArrayRefIterIKNSt7__cxx1112basic_stringIcSt11char_traitsIcESaIcEEEEC2EPS7_(ptr noundef nonnull align 8 dereferenceable(8) %9, ptr noundef %14) #8
  ret void
}

; Function Attrs: mustprogress uwtable
define internal noundef ptr @_ZL13getFileOptionPKciPK8t_filenm(ptr noundef %0, i32 noundef %1, ptr noundef %2) #0 {
  %4 = alloca ptr, align 8
  %5 = alloca ptr, align 8
  %6 = alloca i32, align 4
  %7 = alloca ptr, align 8
  %8 = alloca %class.anon.3, align 1
  %9 = alloca i32, align 4
  store ptr %0, ptr %5, align 8
  store i32 %1, ptr %6, align 4
  store ptr %2, ptr %7, align 8
  %10 = load i32, ptr %6, align 4
  %11 = icmp eq i32 %10, 0
  br i1 %11, label %15, label %12

12:                                               ; preds = %3
  %13 = load ptr, ptr %7, align 8
  %14 = icmp ne ptr %13, null
  br i1 %14, label %15, label %16

15:                                               ; preds = %12, %3
  br label %17

16:                                               ; preds = %12
  call void @"_ZZL13getFileOptionPKciPK8t_filenmENK3$_0clEv"(ptr noundef nonnull align 1 dereferenceable(1) %8)
  br label %17

17:                                               ; preds = %16, %15
  store i32 0, ptr %9, align 4
  br label %18

18:                                               ; preds = %65, %17
  %19 = load i32, ptr %9, align 4
  %20 = load i32, ptr %6, align 4
  %21 = icmp slt i32 %19, %20
  br i1 %21, label %22, label %68

22:                                               ; preds = %18
  %23 = load ptr, ptr %7, align 8
  %24 = load i32, ptr %9, align 4
  %25 = sext i32 %24 to i64
  %26 = getelementptr inbounds %struct.t_filenm, ptr %23, i64 %25
  %27 = getelementptr inbounds %struct.t_filenm, ptr %26, i32 0, i32 1
  %28 = load ptr, ptr %27, align 8
  %29 = icmp ne ptr %28, null
  br i1 %29, label %30, label %40

30:                                               ; preds = %22
  %31 = load ptr, ptr %5, align 8
  %32 = load ptr, ptr %7, align 8
  %33 = load i32, ptr %9, align 4
  %34 = sext i32 %33 to i64
  %35 = getelementptr inbounds %struct.t_filenm, ptr %32, i64 %34
  %36 = getelementptr inbounds %struct.t_filenm, ptr %35, i32 0, i32 1
  %37 = load ptr, ptr %36, align 8
  %38 = call i32 @strcmp(ptr noundef %31, ptr noundef %37) #9
  %39 = icmp eq i32 %38, 0
  br i1 %39, label %59, label %40

40:                                               ; preds = %30, %22
  %41 = load ptr, ptr %7, align 8
  %42 = load i32, ptr %9, align 4
  %43 = sext i32 %42 to i64
  %44 = getelementptr inbounds %struct.t_filenm, ptr %41, i64 %43
  %45 = getelementptr inbounds %struct.t_filenm, ptr %44, i32 0, i32 1
  %46 = load ptr, ptr %45, align 8
  %47 = icmp eq ptr %46, null
  br i1 %47, label %48, label %64

48:                                               ; preds = %40
  %49 = load ptr, ptr %5, align 8
  %50 = load ptr, ptr %7, align 8
  %51 = load i32, ptr %9, align 4
  %52 = sext i32 %51 to i64
  %53 = getelementptr inbounds %struct.t_filenm, ptr %50, i64 %52
  %54 = getelementptr inbounds %struct.t_filenm, ptr %53, i32 0, i32 0
  %55 = load i32, ptr %54, align 8
  %56 = call noundef ptr @_Z10ftp2defopti(i32 noundef %55)
  %57 = call i32 @strcmp(ptr noundef %49, ptr noundef %56) #9
  %58 = icmp eq i32 %57, 0
  br i1 %58, label %59, label %64

59:                                               ; preds = %48, %30
  %60 = load ptr, ptr %7, align 8
  %61 = load i32, ptr %9, align 4
  %62 = sext i32 %61 to i64
  %63 = getelementptr inbounds %struct.t_filenm, ptr %60, i64 %62
  store ptr %63, ptr %4, align 8
  br label %69

64:                                               ; preds = %48, %40
  br label %65

65:                                               ; preds = %64
  %66 = load i32, ptr %9, align 4
  %67 = add nsw i32 %66, 1
  store i32 %67, ptr %9, align 4
  br label %18, !llvm.loop !5

68:                                               ; preds = %18
  store ptr null, ptr %4, align 8
  br label %69

69:                                               ; preds = %68, %59
  %70 = load ptr, ptr %4, align 8
  ret ptr %70
}

; Function Attrs: mustprogress uwtable
define { ptr, ptr } @_Z7opt2fnsB5cxx11PKciPK8t_filenm(ptr noundef %0, i32 noundef %1, ptr noundef %2) #0 {
  %4 = alloca %"class.gmx::ArrayRef", align 8
  %5 = alloca ptr, align 8
  %6 = alloca i32, align 4
  %7 = alloca ptr, align 8
  %8 = alloca ptr, align 8
  %9 = alloca %class.anon.5, align 1
  store ptr %0, ptr %5, align 8
  store i32 %1, ptr %6, align 4
  store ptr %2, ptr %7, align 8
  %10 = load ptr, ptr %5, align 8
  %11 = load i32, ptr %6, align 4
  %12 = load ptr, ptr %7, align 8
  %13 = call noundef ptr @_ZL13getFileOptionPKciPK8t_filenm(ptr noundef %10, i32 noundef %11, ptr noundef %12)
  store ptr %13, ptr %8, align 8
  %14 = load ptr, ptr %8, align 8
  %15 = icmp ne ptr %14, null
  br i1 %15, label %16, label %19

16:                                               ; preds = %3
  %17 = load ptr, ptr %8, align 8
  %18 = getelementptr inbounds %struct.t_filenm, ptr %17, i32 0, i32 4
  call void @_ZN3gmx8ArrayRefIKNSt7__cxx1112basic_stringIcSt11char_traitsIcESaIcEEEEC2IRKSt6vectorIS6_SaIS6_EEvEEOT_(ptr noundef nonnull align 8 dereferenceable(16) %4, ptr noundef nonnull align 8 dereferenceable(24) %18)
  br label %20

19:                                               ; preds = %3
  call void @"_ZZ7opt2fnsB5cxx11PKciPK8t_filenmENK3$_0clEv"(ptr noundef nonnull align 1 dereferenceable(1) %9)
  call void @_ZN3gmx8ArrayRefIKNSt7__cxx1112basic_stringIcSt11char_traitsIcESaIcEEEEC2Ev(ptr noundef nonnull align 8 dereferenceable(16) %4)
  br label %20

20:                                               ; preds = %19, %16
  %21 = load { ptr, ptr }, ptr %4, align 8
  ret { ptr, ptr } %21
}